PC     Output      Line
040000             0001      assume adl=1
040000             0002      org 0x040000
040000             0003  
040000             0004      ; include "mos_api.inc"
040000             0005  
040000 C3 45 00 04 0006      jp start
040004             0007  
040004 FF FF FF FF 0008      align 64
       FF FF FF FF 
       FF FF FF FF 
       FF FF FF FF 
       FF FF FF FF 
       FF FF FF FF 
       FF FF FF FF 
       FF FF FF FF 
       FF FF FF FF 
       FF FF FF FF 
       FF FF FF FF 
       FF FF FF FF 
       FF FF FF FF 
       FF FF FF FF 
       FF FF FF FF 
040040 4D 4F 53    0009      db "MOS"
040043 00          0010      db 00h
040044 01          0011      db 01h
040045             0012  
040045             0013  start:
040045 F5          0014      push af
040046 C5          0015      push bc
040047 D5          0016      push de
040048 DD E5       0017      push ix
04004A FD E5       0018      push iy
04004C             0019  
04004C CD 60 00 04 0020      call init
040050 CD 61 00 04 0021      call main
040054             0022  
040054             0023  exit:
040054             0024  
040054 FD E1       0025      pop iy
040056 DD E1       0026      pop ix
040058 D1          0027      pop de
040059 C1          0028      pop bc
04005A F1          0029      pop af
04005B 21 00 00 00 0030      ld hl,0
04005F             0031  
04005F C9          0032      ret
040060             0033  
040060             0034  ; --- MAIN PROGRAM ---
040060             0035  ; APPLICATION INCLUDES
040060             0036  ; API includes
040060             0037      ; include "functions.inc"
040060             0038      ; include "vdu.inc"
040060             0039  	; include "maths.inc"
040060             0040  	; include "trig24fast.inc"
040060             0041  	; include "fixed24.inc"
040060             0042  	; include "files.inc"
040060             0043      ; include "timer.inc"
040060             0044  
040060             0045  ; --- INITIALIZATION ---
040060             0046  init:
040060 C9          0047     ret
040061             0048  
040061             0049  ; --- MAIN PROGRAM ---
040061             0050  main:
040061 21 00 01 00 0051      ld hl,256
040065 CD 6A 00 04 0052      call sqrt24
040069 C9          0053      ret
04006A             0054  sqrt24:
04006A             0055  ; Expects ADL mode
04006A             0056  ; Inputs: HL
04006A             0057  ; Outputs: DE is the integer square root
04006A             0058  ;          HL is the difference inputHL-DE^2
04006A             0059  ;          c flag reset
04006A 11 00 00 00 0060      ld de,0 ; clear deu
04006E AF          0061      xor a
04006F 45          0062      ld b,l
040070 C5          0063      push bc
040071 47          0064      ld b,a
040072 57          0065      ld d,a
040073 4F          0066      ld c,a
040074 6F          0067      ld l,a
040075 5F          0068      ld e,a
040076             0069  ; Iteration 1
040076 29          0070      add hl,hl
040077 CB 11       0071      rl c
040079 29          0072      add hl,hl
04007A CB 11       0073      rl c
04007C 91          0074      sub c
04007D 30 04       0075      jr nc,$+6
04007F 1C          0076      inc e
040080 1C          0077      inc e
040081 2F          0078      cpl
040082 4F          0079      ld c,a
040083             0080  ; Iteration 2
040083 29          0081      add hl,hl
040084 CB 11       0082      rl c
040086 29          0083      add hl,hl
040087 CB 11       0084      rl c
040089 CB 13       0085      rl e
04008B 7B          0086      ld a,e
04008C 91          0087      sub c
04008D 30 04       0088      jr nc,$+6
04008F 1C          0089      inc e
040090 1C          0090      inc e
040091 2F          0091      cpl
040092 4F          0092      ld c,a
040093             0093  ; Iteration 3
040093 29          0094      add hl,hl
040094 CB 11       0095      rl c
040096 29          0096      add hl,hl
040097 CB 11       0097      rl c
040099 CB 13       0098      rl e
04009B 7B          0099      ld a,e
04009C 91          0100      sub c
04009D 30 04       0101      jr nc,$+6
04009F 1C          0102      inc e
0400A0 1C          0103      inc e
0400A1 2F          0104      cpl
0400A2 4F          0105      ld c,a
0400A3             0106  ; Iteration 4
0400A3 29          0107      add hl,hl
0400A4 CB 11       0108      rl c
0400A6 29          0109      add hl,hl
0400A7 CB 11       0110      rl c
0400A9 CB 13       0111      rl e
0400AB 7B          0112      ld a,e
0400AC 91          0113      sub c
0400AD 30 04       0114      jr nc,$+6
0400AF 1C          0115      inc e
0400B0 1C          0116      inc e
0400B1 2F          0117      cpl
0400B2 4F          0118      ld c,a
0400B3             0119  ; Iteration 5
0400B3 29          0120      add hl,hl
0400B4 CB 11       0121      rl c
0400B6 29          0122      add hl,hl
0400B7 CB 11       0123      rl c
0400B9 CB 13       0124      rl e
0400BB 7B          0125      ld a,e
0400BC 91          0126      sub c
0400BD 30 04       0127      jr nc,$+6
0400BF 1C          0128      inc e
0400C0 1C          0129      inc e
0400C1 2F          0130      cpl
0400C2 4F          0131      ld c,a
0400C3             0132  ; Iteration 6
0400C3 29          0133      add hl,hl
0400C4 CB 11       0134      rl c
0400C6 29          0135      add hl,hl
0400C7 CB 11       0136      rl c
0400C9 CB 13       0137      rl e
0400CB 7B          0138      ld a,e
0400CC 91          0139      sub c
0400CD 30 04       0140      jr nc,$+6
0400CF 1C          0141      inc e
0400D0 1C          0142      inc e
0400D1 2F          0143      cpl
0400D2 4F          0144      ld c,a
0400D3             0145  ; Iteration 7
0400D3 29          0146      add hl,hl
0400D4 CB 11       0147      rl c
0400D6 29          0148      add hl,hl
0400D7 CB 11       0149      rl c
0400D9 CB 10       0150      rl b
0400DB EB          0151      ex de,hl
0400DC 29          0152      add hl,hl
0400DD E5          0153      push hl
0400DE ED 42       0154      sbc hl,bc
0400E0 30 06       0155      jr nc,$+8
0400E2 7C          0156      ld a,h
0400E3 2F          0157      cpl
0400E4 47          0158      ld b,a
0400E5 7D          0159      ld a,l
0400E6 2F          0160      cpl
0400E7 4F          0161      ld c,a
0400E8 E1          0162      pop hl
0400E9 30 02       0163      jr nc,$+4
0400EB 23          0164      inc hl
0400EC 23          0165      inc hl
0400ED EB          0166      ex de,hl
0400EE             0167  ; Iteration 8
0400EE 29          0168      add hl,hl
0400EF 69          0169      ld l,c
0400F0 60          0170      ld h,b
0400F1 ED 6A       0171      adc hl,hl
0400F3 ED 6A       0172      adc hl,hl
0400F5 EB          0173      ex de,hl
0400F6 29          0174      add hl,hl
0400F7 ED 52       0175      sbc hl,de
0400F9 19          0176      add hl,de
0400FA EB          0177      ex de,hl
0400FB 30 04       0178      jr nc,$+6
0400FD ED 52       0179      sbc hl,de
0400FF 13          0180      inc de
040100 13          0181      inc de
040101             0182  ; Iteration 9
040101 F1          0183      pop af
040102 17          0184      rla
040103 ED 6A       0185      adc hl,hl
040105 17          0186      rla
040106 ED 6A       0187      adc hl,hl
040108 EB          0188      ex de,hl
040109 29          0189      add hl,hl
04010A ED 52       0190      sbc hl,de
04010C 19          0191      add hl,de
04010D EB          0192      ex de,hl
04010E 30 04       0193      jr nc,$+6
040110 ED 52       0194      sbc hl,de
040112 13          0195      inc de
040113 13          0196      inc de
040114             0197  ; Iteration 10
040114 17          0198      rla
040115 ED 6A       0199      adc hl,hl
040117 17          0200      rla
040118 ED 6A       0201      adc hl,hl
04011A EB          0202      ex de,hl
04011B 29          0203      add hl,hl
04011C ED 52       0204      sbc hl,de
04011E 19          0205      add hl,de
04011F EB          0206      ex de,hl
040120 30 04       0207      jr nc,$+6
040122 ED 52       0208      sbc hl,de
040124 13          0209      inc de
040125 13          0210      inc de
040126             0211  ; Iteration 11
040126 17          0212      rla
040127 ED 6A       0213      adc hl,hl
040129 17          0214      rla
04012A ED 6A       0215      adc hl,hl
04012C EB          0216      ex de,hl
04012D 29          0217      add hl,hl
04012E ED 52       0218      sbc hl,de
040130 19          0219      add hl,de
040131 EB          0220      ex de,hl
040132 30 04       0221      jr nc,$+6
040134 ED 52       0222      sbc hl,de
040136 13          0223      inc de
040137 13          0224      inc de
040138             0225  ; Iteration 12
040138 17          0226      rla
040139 ED 6A       0227      adc hl,hl
04013B 17          0228      rla
04013C ED 6A       0229      adc hl,hl
04013E EB          0230      ex de,hl
04013F 29          0231      add hl,hl
040140 ED 52       0232      sbc hl,de
040142 19          0233      add hl,de
040143 EB          0234      ex de,hl
040144 30 04       0235      jr nc,$+6
040146 ED 52       0236      sbc hl,de
040148 13          0237      inc de
040149 13          0238      inc de
04014A CB 1A       0239      rr d
04014C CB 1B       0240      rr e
04014E C9          0241      ret
